; Function Attrs: mustprogress uwtable
define internal void @_ZL15enqueue_finallyPvN4absl12lts_202407226StatusE(ptr noundef %0, ptr noundef readonly captures(none) %1) #3 personality ptr @__gxx_personality_v0 {
  %3 = alloca %"class.absl::lts_20240722::Status", align 8
  %4 = getelementptr inbounds nuw i8, ptr %0, i64 24
  %5 = load i64, ptr %4, align 8, !tbaa !29
  %6 = inttoptr i64 %5 to ptr
  store i64 0, ptr %4, align 8, !tbaa !29
  %7 = load i64, ptr %1, align 8, !tbaa !59
  store i64 %7, ptr %3, align 8, !tbaa !59
  %8 = and i64 %7, 1
  %.not.i.i = icmp eq i64 %8, 0
  br i1 %.not.i.i, label %9, label %_ZN4absl12lts_202407226StatusC2ERKS1_.exit

9:                                                ; preds = %2
  %10 = inttoptr i64 %7 to ptr
  %11 = atomicrmw add ptr %10, i32 1 monotonic, align 4
  br label %_ZN4absl12lts_202407226StatusC2ERKS1_.exit

_ZN4absl12lts_202407226StatusC2ERKS1_.exit:       ; preds = %2, %9
  invoke fastcc void @_ZL21combiner_finally_execPN9grpc_core8CombinerEP12grpc_closureN4absl12lts_202407226StatusE(ptr noundef %6, ptr noundef nonnull %0, ptr noundef %3)
          to label %12 unwind label %18

12:                                               ; preds = %_ZN4absl12lts_202407226StatusC2ERKS1_.exit
  br i1 %.not.i.i, label %13, label %_ZN4absl12lts_202407226StatusD2Ev.exit

13:                                               ; preds = %12
  %14 = inttoptr i64 %7 to ptr
  invoke void @_ZNK4absl12lts_2024072215status_internal9StatusRep5UnrefEv(ptr noundef nonnull align 8 dereferenceable(48) %14)
          to label %_ZN4absl12lts_202407226StatusD2Ev.exit unwind label %15

15:                                               ; preds = %13
  %16 = landingpad { ptr, i32 }
          catch ptr null
  %17 = extractvalue { ptr, i32 } %16, 0
  tail call void @__clang_call_terminate(ptr %17) #26
  unreachable

_ZN4absl12lts_202407226StatusD2Ev.exit:           ; preds = %12, %13
  ret void

18:                                               ; preds = %_ZN4absl12lts_202407226StatusC2ERKS1_.exit
  %19 = landingpad { ptr, i32 }
          cleanup
  call void @_ZN4absl12lts_202407226StatusD2Ev(ptr noundef nonnull align 8 dereferenceable(8) %3) #24
  resume { ptr, i32 } %19
}